target datalayout = "e-m:e-p270:32:32-p271:32:32-p272:64:64-i64:64-i128:128-f80:128-n8:16:32:64-S128"
target triple = "x86_64-pc-linux-gnu"

%"struct.Yosys::RTLIL::IdString" = type { i32 }
%"struct.Yosys::DriveBitWire" = type <{ ptr, i32, [4 x i8] }>
%"struct.Yosys::DriveBit" = type { i8, %union.anon }
%union.anon = type { %"struct.Yosys::DriveBitPort", [40 x i8] }
%"struct.Yosys::DriveBitPort" = type { ptr, %"struct.Yosys::RTLIL::IdString", i32 }
%"struct.Yosys::RTLIL::SigBit" = type <{ ptr, %union.anon.5, [4 x i8] }>
%union.anon.5 = type { i32 }

; Function Attrs: mustprogress nounwind uwtable
define linkonce_odr noundef nonnull align 8 dereferenceable(64) ptr @_ZN5Yosys8DriveBitaSENS_5RTLIL5StateE(ptr noundef nonnull align 8 dereferenceable(64) %0, i8 noundef zeroext %1) #7 comdat align 2 {
  %3 = alloca ptr, align 8
  %4 = alloca i8, align 1
  store ptr %0, ptr %3, align 8, !tbaa !6
  store i8 %1, ptr %4, align 1, !tbaa !29
  %5 = load ptr, ptr %3, align 8
  call void @_ZN5Yosys8DriveBit8set_noneEv(ptr noundef nonnull align 8 dereferenceable(64) %5)
  %6 = load i8, ptr %4, align 1, !tbaa !29
  %7 = getelementptr inbounds nuw %"struct.Yosys::DriveBit", ptr %5, i32 0, i32 1
  store i8 %6, ptr %7, align 8, !tbaa !19
  %8 = getelementptr inbounds nuw %"struct.Yosys::DriveBit", ptr %5, i32 0, i32 0
  store i8 1, ptr %8, align 8, !tbaa !13
  ret ptr %5
}

; Function Attrs: mustprogress uwtable
define linkonce_odr noundef nonnull align 8 dereferenceable(64) ptr @_ZN5Yosys8DriveBitaSEONS_12DriveBitWireE(ptr noundef nonnull align 8 dereferenceable(64) %0, ptr noundef nonnull align 8 dereferenceable(12) %1) #4 comdat align 2 {
  %3 = alloca ptr, align 8
  %4 = alloca ptr, align 8
  store ptr %0, ptr %3, align 8, !tbaa !6
  store ptr %1, ptr %4, align 8, !tbaa !20
  %5 = load ptr, ptr %3, align 8
  call void @_ZN5Yosys8DriveBit8set_noneEv(ptr noundef nonnull align 8 dereferenceable(64) %5)
  %6 = getelementptr inbounds nuw %"struct.Yosys::DriveBit", ptr %5, i32 0, i32 1
  %7 = load ptr, ptr %4, align 8, !tbaa !20
  call void @llvm.memcpy.p0.p0.i64(ptr align 8 %6, ptr align 8 %7, i64 16, i1 false), !tbaa.struct !28
  %8 = getelementptr inbounds nuw %"struct.Yosys::DriveBit", ptr %5, i32 0, i32 0
  store i8 2, ptr %8, align 8, !tbaa !13
  ret ptr %5
}

; Function Attrs: mustprogress nounwind uwtable
define linkonce_odr void @_ZN5Yosys12DriveBitWireC2EPNS_5RTLIL4WireEi(ptr noundef nonnull align 8 dereferenceable(12) %0, ptr noundef %1, i32 noundef %2) unnamed_addr #7 comdat align 2 {
  %4 = alloca ptr, align 8
  %5 = alloca ptr, align 8
  %6 = alloca i32, align 4
  store ptr %0, ptr %4, align 8, !tbaa !20
  store ptr %1, ptr %5, align 8, !tbaa !22
  store i32 %2, ptr %6, align 4, !tbaa !23
  %7 = load ptr, ptr %4, align 8
  %8 = getelementptr inbounds nuw %"struct.Yosys::DriveBitWire", ptr %7, i32 0, i32 0
  %9 = load ptr, ptr %5, align 8, !tbaa !22
  store ptr %9, ptr %8, align 8, !tbaa !25
  %10 = getelementptr inbounds nuw %"struct.Yosys::DriveBitWire", ptr %7, i32 0, i32 1
  %11 = load i32, ptr %6, align 4, !tbaa !23
  store i32 %11, ptr %10, align 8, !tbaa !27
  ret void
}

; Function Attrs: inlinehint mustprogress nounwind uwtable
define linkonce_odr noundef zeroext i1 @_ZNK5Yosys5RTLIL6SigBit7is_wireEv(ptr noundef nonnull align 8 dereferenceable(12) %0) #5 comdat align 2 {
  %2 = alloca ptr, align 8
  store ptr %0, ptr %2, align 8, !tbaa !11
  %3 = load ptr, ptr %2, align 8
  %4 = getelementptr inbounds nuw %"struct.Yosys::RTLIL::SigBit", ptr %3, i32 0, i32 0
  %5 = load ptr, ptr %4, align 8, !tbaa !16
  %6 = icmp ne ptr %5, null
  ret i1 %6
}

; Function Attrs: mustprogress uwtable
define void @_ZN5Yosys8DriveBitC2ERKNS_5RTLIL6SigBitE(ptr noundef nonnull align 8 dereferenceable(64) %0, ptr noundef nonnull align 8 dereferenceable(12) %1) unnamed_addr #4 align 2 {
  %3 = alloca ptr, align 8
  %4 = alloca ptr, align 8
  %5 = alloca %"struct.Yosys::DriveBitWire", align 8
  store ptr %0, ptr %3, align 8, !tbaa !6
  store ptr %1, ptr %4, align 8, !tbaa !11
  %6 = load ptr, ptr %3, align 8
  %7 = getelementptr inbounds nuw %"struct.Yosys::DriveBit", ptr %6, i32 0, i32 0
  store i8 0, ptr %7, align 8, !tbaa !13
  %8 = load ptr, ptr %4, align 8, !tbaa !11
  %9 = call noundef zeroext i1 @_ZNK5Yosys5RTLIL6SigBit7is_wireEv(ptr noundef nonnull align 8 dereferenceable(12) %8)
  br i1 %9, label %10, label %18

10:                                               ; preds = %2
  call void @llvm.lifetime.start.p0(i64 16, ptr %5) #3
  %11 = load ptr, ptr %4, align 8, !tbaa !11
  %12 = getelementptr inbounds nuw %"struct.Yosys::RTLIL::SigBit", ptr %11, i32 0, i32 0
  %13 = load ptr, ptr %12, align 8, !tbaa !16
  %14 = load ptr, ptr %4, align 8, !tbaa !11
  %15 = getelementptr inbounds nuw %"struct.Yosys::RTLIL::SigBit", ptr %14, i32 0, i32 1
  %16 = load i32, ptr %15, align 8, !tbaa !19
  call void @_ZN5Yosys12DriveBitWireC2EPNS_5RTLIL4WireEi(ptr noundef nonnull align 8 dereferenceable(12) %5, ptr noundef %13, i32 noundef %16)
  %17 = call noundef nonnull align 8 dereferenceable(64) ptr @_ZN5Yosys8DriveBitaSEONS_12DriveBitWireE(ptr noundef nonnull align 8 dereferenceable(64) %6, ptr noundef nonnull align 8 dereferenceable(12) %5)
  call void @llvm.lifetime.end.p0(i64 16, ptr %5) #3
  br label %23

18:                                               ; preds = %2
  %19 = load ptr, ptr %4, align 8, !tbaa !11
  %20 = getelementptr inbounds nuw %"struct.Yosys::RTLIL::SigBit", ptr %19, i32 0, i32 1
  %21 = load i8, ptr %20, align 8, !tbaa !19
  %22 = call noundef nonnull align 8 dereferenceable(64) ptr @_ZN5Yosys8DriveBitaSENS_5RTLIL5StateE(ptr noundef nonnull align 8 dereferenceable(64) %6, i8 noundef zeroext %21)
  br label %23

23:                                               ; preds = %18, %10
  ret void
}