; Function Attrs: mustprogress nounwind uwtable
define void @_ZN5Yosys8DriveBitC2ERKNS_5RTLIL6SigBitE(ptr noundef nonnull align 8 dereferenceable(64) initializes((0, 1)) %0, ptr noundef nonnull readonly align 8 captures(none) dereferenceable(12) %1) unnamed_addr #3 align 2 {
  store i8 0, ptr %0, align 8, !tbaa !6
  %3 = load ptr, ptr %1, align 8, !tbaa !11
  %.not = icmp eq ptr %3, null
  %4 = getelementptr inbounds nuw i8, ptr %1, i64 8
  %5 = getelementptr inbounds nuw i8, ptr %0, i64 8
  br i1 %.not, label %8, label %6

6:                                                ; preds = %2
  %7 = load i32, ptr %4, align 8, !tbaa !15
  tail call void @_ZN5Yosys8DriveBit8set_noneEv(ptr noundef nonnull align 8 dereferenceable(64) %0)
  store ptr %3, ptr %5, align 8, !tbaa !16
  %.sroa.4.0..sroa_idx = getelementptr inbounds nuw i8, ptr %0, i64 16
  store i32 %7, ptr %.sroa.4.0..sroa_idx, align 8, !tbaa !17
  br label %10

8:                                                ; preds = %2
  %9 = load i8, ptr %4, align 8, !tbaa !15
  tail call void @_ZN5Yosys8DriveBit8set_noneEv(ptr noundef nonnull align 8 dereferenceable(64) %0)
  store i8 %9, ptr %5, align 8, !tbaa !15
  br label %10

10:                                               ; preds = %8, %6
  %storemerge = phi i8 [ 1, %8 ], [ 2, %6 ]
  store i8 %storemerge, ptr %0, align 8, !tbaa !6
  ret void
}